target datalayout = "e-m:e-p270:32:32-p271:32:32-p272:64:64-i64:64-i128:128-f80:128-n8:16:32:64-S128"
target triple = "x86_64-pc-linux-gnu"

; Function Attrs: mustprogress nounwind uwtable
define noundef i64 @_ZN6casadi11n_fd_pointsENS_6FdModeE(i32 noundef %0) #5 {
  %2 = alloca i64, align 8
  %3 = alloca i32, align 4
  store i32 %0, ptr %3, align 4
  %4 = load i32, ptr %3, align 4
  switch i32 %4, label %9 [
    i32 0, label %5
    i32 1, label %6
    i32 2, label %7
    i32 3, label %8
  ]

5:                                                ; preds = %1
  store i64 2, ptr %2, align 8
  br label %11

6:                                                ; preds = %1
  store i64 2, ptr %2, align 8
  br label %11

7:                                                ; preds = %1
  store i64 3, ptr %2, align 8
  br label %11

8:                                                ; preds = %1
  store i64 5, ptr %2, align 8
  br label %11

9:                                                ; preds = %1
  br label %10

10:                                               ; preds = %9
  store i64 -1, ptr %2, align 8
  br label %11

11:                                               ; preds = %10, %8, %7, %6, %5
  %12 = load i64, ptr %2, align 8
  ret i64 %12
}